target datalayout = "e-m:e-p270:32:32-p271:32:32-p272:64:64-i64:64-i128:128-f80:128-n8:16:32:64-S128"
target triple = "x86_64-pc-linux-gnu"

%struct.Aig_Man_t_ = type { ptr, ptr, ptr, ptr, ptr, ptr, ptr, %struct.Aig_Obj_t_, i32, i32, i32, i32, i32, i32, [7 x i32], i32, ptr, i32, ptr, i32, ptr, i32, i32, i32, ptr, i32, i32, i32, i32, i32, ptr, ptr, i32, ptr, ptr, i32, ptr, ptr, i32, i32, i32, ptr, ptr, ptr, ptr, ptr, ptr, ptr, ptr, ptr, ptr, ptr, ptr, ptr, ptr, i32, ptr, ptr, ptr, ptr, i32, i64, i64, i64, ptr, ptr }
%struct.Aig_Obj_t_ = type { %union.anon, ptr, ptr, i64, i32, i32, %union.anon.0 }
%union.anon = type { ptr }
%union.anon.0 = type { ptr }

; Function Attrs: inlinehint nounwind uwtable
define internal i32 @Aig_IsComplement(ptr noundef %0) #2 {
  %2 = alloca ptr, align 8
  store ptr %0, ptr %2, align 8, !tbaa !25
  %3 = load ptr, ptr %2, align 8, !tbaa !25
  %4 = ptrtoint ptr %3 to i64
  %5 = and i64 %4, 1
  %6 = trunc i64 %5 to i32
  ret i32 %6
}

; Function Attrs: inlinehint nounwind uwtable
define internal i32 @Aig_ObjFaninC1(ptr noundef %0) #2 {
  %2 = alloca ptr, align 8
  store ptr %0, ptr %2, align 8, !tbaa !25
  %3 = load ptr, ptr %2, align 8, !tbaa !25
  %4 = getelementptr inbounds nuw %struct.Aig_Obj_t_, ptr %3, i32 0, i32 2
  %5 = load ptr, ptr %4, align 8, !tbaa !45
  %6 = call i32 @Aig_IsComplement(ptr noundef %5)
  ret i32 %6
}

; Function Attrs: inlinehint nounwind uwtable
define internal ptr @Aig_NotCond(ptr noundef %0, i32 noundef %1) #2 {
  %3 = alloca ptr, align 8
  %4 = alloca i32, align 4
  store ptr %0, ptr %3, align 8, !tbaa !25
  store i32 %1, ptr %4, align 4, !tbaa !12
  %5 = load ptr, ptr %3, align 8, !tbaa !25
  %6 = ptrtoint ptr %5 to i64
  %7 = load i32, ptr %4, align 4, !tbaa !12
  %8 = sext i32 %7 to i64
  %9 = xor i64 %6, %8
  %10 = inttoptr i64 %9 to ptr
  ret ptr %10
}

; Function Attrs: inlinehint nounwind uwtable
define internal i32 @Aig_ObjFaninC0(ptr noundef %0) #2 {
  %2 = alloca ptr, align 8
  store ptr %0, ptr %2, align 8, !tbaa !25
  %3 = load ptr, ptr %2, align 8, !tbaa !25
  %4 = getelementptr inbounds nuw %struct.Aig_Obj_t_, ptr %3, i32 0, i32 1
  %5 = load ptr, ptr %4, align 8, !tbaa !41
  %6 = call i32 @Aig_IsComplement(ptr noundef %5)
  ret i32 %6
}

; Function Attrs: inlinehint nounwind uwtable
define internal ptr @Aig_Regular(ptr noundef %0) #2 {
  %2 = alloca ptr, align 8
  store ptr %0, ptr %2, align 8, !tbaa !25
  %3 = load ptr, ptr %2, align 8, !tbaa !25
  %4 = ptrtoint ptr %3 to i64
  %5 = and i64 %4, -2
  %6 = inttoptr i64 %5 to ptr
  ret ptr %6
}

; Function Attrs: inlinehint nounwind uwtable
define internal ptr @Aig_ObjChild1Copy(ptr noundef %0) #2 {
  %2 = alloca ptr, align 8
  store ptr %0, ptr %2, align 8, !tbaa !25
  %3 = load ptr, ptr %2, align 8, !tbaa !25
  %4 = call ptr @Aig_ObjFanin1(ptr noundef %3)
  %5 = icmp ne ptr %4, null
  br i1 %5, label %6, label %14

6:                                                ; preds = %1
  %7 = load ptr, ptr %2, align 8, !tbaa !25
  %8 = call ptr @Aig_ObjFanin1(ptr noundef %7)
  %9 = getelementptr inbounds nuw %struct.Aig_Obj_t_, ptr %8, i32 0, i32 6
  %10 = load ptr, ptr %9, align 8, !tbaa !26
  %11 = load ptr, ptr %2, align 8, !tbaa !25
  %12 = call i32 @Aig_ObjFaninC1(ptr noundef %11)
  %13 = call ptr @Aig_NotCond(ptr noundef %10, i32 noundef %12)
  br label %15

14:                                               ; preds = %1
  br label %15

15:                                               ; preds = %14, %6
  %16 = phi ptr [ %13, %6 ], [ null, %14 ]
  ret ptr %16
}

; Function Attrs: inlinehint nounwind uwtable
define internal ptr @Aig_ObjChild0Copy(ptr noundef %0) #2 {
  %2 = alloca ptr, align 8
  store ptr %0, ptr %2, align 8, !tbaa !25
  %3 = load ptr, ptr %2, align 8, !tbaa !25
  %4 = call ptr @Aig_ObjFanin0(ptr noundef %3)
  %5 = icmp ne ptr %4, null
  br i1 %5, label %6, label %14

6:                                                ; preds = %1
  %7 = load ptr, ptr %2, align 8, !tbaa !25
  %8 = call ptr @Aig_ObjFanin0(ptr noundef %7)
  %9 = getelementptr inbounds nuw %struct.Aig_Obj_t_, ptr %8, i32 0, i32 6
  %10 = load ptr, ptr %9, align 8, !tbaa !26
  %11 = load ptr, ptr %2, align 8, !tbaa !25
  %12 = call i32 @Aig_ObjFaninC0(ptr noundef %11)
  %13 = call ptr @Aig_NotCond(ptr noundef %10, i32 noundef %12)
  br label %15

14:                                               ; preds = %1
  br label %15

15:                                               ; preds = %14, %6
  %16 = phi ptr [ %13, %6 ], [ null, %14 ]
  ret ptr %16
}

; Function Attrs: inlinehint nounwind uwtable
define internal ptr @Aig_ObjFanin1(ptr noundef %0) #2 {
  %2 = alloca ptr, align 8
  store ptr %0, ptr %2, align 8, !tbaa !25
  %3 = load ptr, ptr %2, align 8, !tbaa !25
  %4 = getelementptr inbounds nuw %struct.Aig_Obj_t_, ptr %3, i32 0, i32 2
  %5 = load ptr, ptr %4, align 8, !tbaa !45
  %6 = call ptr @Aig_Regular(ptr noundef %5)
  ret ptr %6
}

; Function Attrs: inlinehint nounwind uwtable
define internal i32 @Aig_ObjIsNode(ptr noundef %0) #2 {
  %2 = alloca ptr, align 8
  store ptr %0, ptr %2, align 8, !tbaa !25
  %3 = load ptr, ptr %2, align 8, !tbaa !25
  %4 = getelementptr inbounds nuw %struct.Aig_Obj_t_, ptr %3, i32 0, i32 3
  %5 = load i64, ptr %4, align 8
  %6 = and i64 %5, 7
  %7 = trunc i64 %6 to i32
  %8 = icmp eq i32 %7, 5
  br i1 %8, label %16, label %9

9:                                                ; preds = %1
  %10 = load ptr, ptr %2, align 8, !tbaa !25
  %11 = getelementptr inbounds nuw %struct.Aig_Obj_t_, ptr %10, i32 0, i32 3
  %12 = load i64, ptr %11, align 8
  %13 = and i64 %12, 7
  %14 = trunc i64 %13 to i32
  %15 = icmp eq i32 %14, 6
  br label %16

16:                                               ; preds = %9, %1
  %17 = phi i1 [ true, %1 ], [ %15, %9 ]
  %18 = zext i1 %17 to i32
  ret i32 %18
}

; Function Attrs: inlinehint nounwind uwtable
define internal ptr @Aig_ObjFanin0(ptr noundef %0) #2 {
  %2 = alloca ptr, align 8
  store ptr %0, ptr %2, align 8, !tbaa !25
  %3 = load ptr, ptr %2, align 8, !tbaa !25
  %4 = getelementptr inbounds nuw %struct.Aig_Obj_t_, ptr %3, i32 0, i32 1
  %5 = load ptr, ptr %4, align 8, !tbaa !41
  %6 = call ptr @Aig_Regular(ptr noundef %5)
  ret ptr %6
}

; Function Attrs: inlinehint nounwind uwtable
define internal void @Aig_ObjSetTravIdCurrent(ptr noundef %0, ptr noundef %1) #2 {
  %3 = alloca ptr, align 8
  %4 = alloca ptr, align 8
  store ptr %0, ptr %3, align 8, !tbaa !3
  store ptr %1, ptr %4, align 8, !tbaa !25
  %5 = load ptr, ptr %3, align 8, !tbaa !3
  %6 = getelementptr inbounds nuw %struct.Aig_Man_t_, ptr %5, i32 0, i32 38
  %7 = load i32, ptr %6, align 8, !tbaa !44
  %8 = load ptr, ptr %4, align 8, !tbaa !25
  %9 = getelementptr inbounds nuw %struct.Aig_Obj_t_, ptr %8, i32 0, i32 4
  store i32 %7, ptr %9, align 8, !tbaa !43
  ret void
}

; Function Attrs: inlinehint nounwind uwtable
define internal i32 @Aig_ObjIsTravIdCurrent(ptr noundef %0, ptr noundef %1) #2 {
  %3 = alloca ptr, align 8
  %4 = alloca ptr, align 8
  store ptr %0, ptr %3, align 8, !tbaa !3
  store ptr %1, ptr %4, align 8, !tbaa !25
  %5 = load ptr, ptr %4, align 8, !tbaa !25
  %6 = getelementptr inbounds nuw %struct.Aig_Obj_t_, ptr %5, i32 0, i32 4
  %7 = load i32, ptr %6, align 8, !tbaa !43
  %8 = load ptr, ptr %3, align 8, !tbaa !3
  %9 = getelementptr inbounds nuw %struct.Aig_Man_t_, ptr %8, i32 0, i32 38
  %10 = load i32, ptr %9, align 8, !tbaa !44
  %11 = icmp eq i32 %7, %10
  %12 = zext i1 %11 to i32
  ret i32 %12
}

; Function Attrs: nounwind uwtable
define void @Saig_ManDupIsoCanonical_rec(ptr noundef %0, ptr noundef %1, ptr noundef %2) #0 {
  %4 = alloca ptr, align 8
  %5 = alloca ptr, align 8
  %6 = alloca ptr, align 8
  store ptr %0, ptr %4, align 8, !tbaa !3
  store ptr %1, ptr %5, align 8, !tbaa !3
  store ptr %2, ptr %6, align 8, !tbaa !25
  %7 = load ptr, ptr %5, align 8, !tbaa !3
  %8 = load ptr, ptr %6, align 8, !tbaa !25
  %9 = call i32 @Aig_ObjIsTravIdCurrent(ptr noundef %7, ptr noundef %8)
  %10 = icmp ne i32 %9, 0
  br i1 %10, label %11, label %12

11:                                               ; preds = %3
  br label %71

12:                                               ; preds = %3
  %13 = load ptr, ptr %5, align 8, !tbaa !3
  %14 = load ptr, ptr %6, align 8, !tbaa !25
  call void @Aig_ObjSetTravIdCurrent(ptr noundef %13, ptr noundef %14)
  %15 = load ptr, ptr %6, align 8, !tbaa !25
  %16 = call ptr @Aig_ObjFanin0(ptr noundef %15)
  %17 = call i32 @Aig_ObjIsNode(ptr noundef %16)
  %18 = icmp ne i32 %17, 0
  br i1 %18, label %19, label %24

19:                                               ; preds = %12
  %20 = load ptr, ptr %6, align 8, !tbaa !25
  %21 = call ptr @Aig_ObjFanin1(ptr noundef %20)
  %22 = call i32 @Aig_ObjIsNode(ptr noundef %21)
  %23 = icmp ne i32 %22, 0
  br i1 %23, label %33, label %24

24:                                               ; preds = %19, %12
  %25 = load ptr, ptr %4, align 8, !tbaa !3
  %26 = load ptr, ptr %5, align 8, !tbaa !3
  %27 = load ptr, ptr %6, align 8, !tbaa !25
  %28 = call ptr @Aig_ObjFanin0(ptr noundef %27)
  call void @Saig_ManDupIsoCanonical_rec(ptr noundef %25, ptr noundef %26, ptr noundef %28)
  %29 = load ptr, ptr %4, align 8, !tbaa !3
  %30 = load ptr, ptr %5, align 8, !tbaa !3
  %31 = load ptr, ptr %6, align 8, !tbaa !25
  %32 = call ptr @Aig_ObjFanin1(ptr noundef %31)
  call void @Saig_ManDupIsoCanonical_rec(ptr noundef %29, ptr noundef %30, ptr noundef %32)
  br label %62

33:                                               ; preds = %19
  %34 = load ptr, ptr %6, align 8, !tbaa !25
  %35 = call ptr @Aig_ObjFanin0(ptr noundef %34)
  %36 = getelementptr inbounds nuw %struct.Aig_Obj_t_, ptr %35, i32 0, i32 6
  %37 = load i32, ptr %36, align 8, !tbaa !26
  %38 = load ptr, ptr %6, align 8, !tbaa !25
  %39 = call ptr @Aig_ObjFanin1(ptr noundef %38)
  %40 = getelementptr inbounds nuw %struct.Aig_Obj_t_, ptr %39, i32 0, i32 6
  %41 = load i32, ptr %40, align 8, !tbaa !26
  %42 = icmp slt i32 %37, %41
  br i1 %42, label %43, label %52

43:                                               ; preds = %33
  %44 = load ptr, ptr %4, align 8, !tbaa !3
  %45 = load ptr, ptr %5, align 8, !tbaa !3
  %46 = load ptr, ptr %6, align 8, !tbaa !25
  %47 = call ptr @Aig_ObjFanin0(ptr noundef %46)
  call void @Saig_ManDupIsoCanonical_rec(ptr noundef %44, ptr noundef %45, ptr noundef %47)
  %48 = load ptr, ptr %4, align 8, !tbaa !3
  %49 = load ptr, ptr %5, align 8, !tbaa !3
  %50 = load ptr, ptr %6, align 8, !tbaa !25
  %51 = call ptr @Aig_ObjFanin1(ptr noundef %50)
  call void @Saig_ManDupIsoCanonical_rec(ptr noundef %48, ptr noundef %49, ptr noundef %51)
  br label %61

52:                                               ; preds = %33
  %53 = load ptr, ptr %4, align 8, !tbaa !3
  %54 = load ptr, ptr %5, align 8, !tbaa !3
  %55 = load ptr, ptr %6, align 8, !tbaa !25
  %56 = call ptr @Aig_ObjFanin1(ptr noundef %55)
  call void @Saig_ManDupIsoCanonical_rec(ptr noundef %53, ptr noundef %54, ptr noundef %56)
  %57 = load ptr, ptr %4, align 8, !tbaa !3
  %58 = load ptr, ptr %5, align 8, !tbaa !3
  %59 = load ptr, ptr %6, align 8, !tbaa !25
  %60 = call ptr @Aig_ObjFanin0(ptr noundef %59)
  call void @Saig_ManDupIsoCanonical_rec(ptr noundef %57, ptr noundef %58, ptr noundef %60)
  br label %61

61:                                               ; preds = %52, %43
  br label %62

62:                                               ; preds = %61, %24
  %63 = load ptr, ptr %4, align 8, !tbaa !3
  %64 = load ptr, ptr %6, align 8, !tbaa !25
  %65 = call ptr @Aig_ObjChild0Copy(ptr noundef %64)
  %66 = load ptr, ptr %6, align 8, !tbaa !25
  %67 = call ptr @Aig_ObjChild1Copy(ptr noundef %66)
  %68 = call ptr @Aig_And(ptr noundef %63, ptr noundef %65, ptr noundef %67)
  %69 = load ptr, ptr %6, align 8, !tbaa !25
  %70 = getelementptr inbounds nuw %struct.Aig_Obj_t_, ptr %69, i32 0, i32 6
  store ptr %68, ptr %70, align 8, !tbaa !26
  br label %71

71:                                               ; preds = %62, %11
  ret void
}