; Function Attrs: nounwind uwtable
define void @Saig_ManDupIsoCanonical_rec(ptr noundef %0, ptr noundef %1, ptr noundef captures(none) %2) local_unnamed_addr #0 {
  %4 = getelementptr i8, ptr %1, i64 312
  %.val36 = load i32, ptr %4, align 8, !tbaa !39
  %5 = getelementptr i8, ptr %2, i64 32
  %.val37 = load i32, ptr %5, align 8, !tbaa !40
  %.not = icmp eq i32 %.val37, %.val36
  br i1 %.not, label %63, label %6

6:                                                ; preds = %3
  store i32 %.val36, ptr %5, align 8, !tbaa !40
  %7 = getelementptr i8, ptr %2, i64 8
  %.val35 = load ptr, ptr %7, align 8, !tbaa !32
  %8 = ptrtoint ptr %.val35 to i64
  %9 = and i64 %8, -2
  %10 = inttoptr i64 %9 to ptr
  %11 = getelementptr i8, ptr %10, i64 24
  %.val39 = load i64, ptr %11, align 8
  %12 = trunc i64 %.val39 to i32
  %13 = and i32 %12, 7
  %14 = add nsw i32 %13, -7
  %narrow.i = icmp ult i32 %14, -2
  br i1 %narrow.i, label %24, label %15

15:                                               ; preds = %6
  %16 = getelementptr i8, ptr %2, i64 16
  %.val41 = load ptr, ptr %16, align 8, !tbaa !41
  %17 = ptrtoint ptr %.val41 to i64
  %18 = and i64 %17, -2
  %19 = inttoptr i64 %18 to ptr
  %20 = getelementptr i8, ptr %19, i64 24
  %.val40 = load i64, ptr %20, align 8
  %21 = trunc i64 %.val40 to i32
  %22 = and i32 %21, 7
  %23 = add nsw i32 %22, -7
  %narrow.i48 = icmp ult i32 %23, -2
  br i1 %narrow.i48, label %24, label %26

24:                                               ; preds = %15, %6
  tail call void @Saig_ManDupIsoCanonical_rec(ptr noundef %0, ptr noundef nonnull %1, ptr noundef nonnull %10)
  %25 = getelementptr i8, ptr %2, i64 16
  br label %34

26:                                               ; preds = %15
  %27 = getelementptr inbounds nuw i8, ptr %10, i64 40
  %28 = load i32, ptr %27, align 8, !tbaa !33
  %29 = getelementptr inbounds nuw i8, ptr %19, i64 40
  %30 = load i32, ptr %29, align 8, !tbaa !33
  %31 = icmp slt i32 %28, %30
  br i1 %31, label %32, label %33

32:                                               ; preds = %26
  tail call void @Saig_ManDupIsoCanonical_rec(ptr noundef %0, ptr noundef nonnull %1, ptr noundef nonnull %10)
  br label %34

33:                                               ; preds = %26
  tail call void @Saig_ManDupIsoCanonical_rec(ptr noundef %0, ptr noundef nonnull %1, ptr noundef nonnull %19)
  br label %34

34:                                               ; preds = %32, %33, %24
  %.val44.sink.in = phi ptr [ %16, %32 ], [ %7, %33 ], [ %25, %24 ]
  %.val44.sink = load ptr, ptr %.val44.sink.in, align 8, !tbaa !42
  %35 = ptrtoint ptr %.val44.sink to i64
  %36 = and i64 %35, -2
  %37 = inttoptr i64 %36 to ptr
  tail call void @Saig_ManDupIsoCanonical_rec(ptr noundef %0, ptr noundef nonnull %1, ptr noundef %37)
  %.val46 = load ptr, ptr %7, align 8, !tbaa !32
  %38 = ptrtoint ptr %.val46 to i64
  %39 = and i64 %38, -2
  %.not.i = icmp eq i64 %39, 0
  br i1 %.not.i, label %Aig_ObjChild0Copy.exit, label %40

40:                                               ; preds = %34
  %41 = inttoptr i64 %39 to ptr
  %42 = getelementptr inbounds nuw i8, ptr %41, i64 40
  %43 = load ptr, ptr %42, align 8, !tbaa !33
  %44 = and i64 %38, 1
  %45 = ptrtoint ptr %43 to i64
  %46 = xor i64 %44, %45
  %47 = inttoptr i64 %46 to ptr
  br label %Aig_ObjChild0Copy.exit

Aig_ObjChild0Copy.exit:                           ; preds = %34, %40
  %48 = phi ptr [ %47, %40 ], [ null, %34 ]
  %49 = getelementptr i8, ptr %2, i64 16
  %.val47 = load ptr, ptr %49, align 8, !tbaa !41
  %50 = ptrtoint ptr %.val47 to i64
  %51 = and i64 %50, -2
  %.not.i49 = icmp eq i64 %51, 0
  br i1 %.not.i49, label %Aig_ObjChild1Copy.exit, label %52

52:                                               ; preds = %Aig_ObjChild0Copy.exit
  %53 = inttoptr i64 %51 to ptr
  %54 = getelementptr inbounds nuw i8, ptr %53, i64 40
  %55 = load ptr, ptr %54, align 8, !tbaa !33
  %56 = and i64 %50, 1
  %57 = ptrtoint ptr %55 to i64
  %58 = xor i64 %56, %57
  %59 = inttoptr i64 %58 to ptr
  br label %Aig_ObjChild1Copy.exit

Aig_ObjChild1Copy.exit:                           ; preds = %Aig_ObjChild0Copy.exit, %52
  %60 = phi ptr [ %59, %52 ], [ null, %Aig_ObjChild0Copy.exit ]
  %61 = tail call ptr @Aig_And(ptr noundef %0, ptr noundef %48, ptr noundef %60) #24
  %62 = getelementptr inbounds nuw i8, ptr %2, i64 40
  store ptr %61, ptr %62, align 8, !tbaa !33
  br label %63

63:                                               ; preds = %3, %Aig_ObjChild1Copy.exit
  ret void
}